target datalayout = "e-m:e-p270:32:32-p271:32:32-p272:64:64-i64:64-i128:128-f80:128-n8:16:32:64-S128"
target triple = "x86_64-pc-linux-gnu"

%"class.std::__cxx11::basic_string" = type { %"struct.std::__cxx11::basic_string<char>::_Alloc_hider", i64, %union.anon }
%"struct.std::__cxx11::basic_string<char>::_Alloc_hider" = type { ptr }
%union.anon = type { i64, [8 x i8] }
%"class.std::allocator.0" = type { i8 }

@.str = private unnamed_addr constant [2 x i8] c"x\00", align 1
@.str.4 = private unnamed_addr constant [2 x i8] c"f\00", align 1
@.str.5 = private unnamed_addr constant [2 x i8] c"g\00", align 1
@.str.21 = private unnamed_addr constant [6 x i8] c"lam_x\00", align 1
@.str.22 = private unnamed_addr constant [6 x i8] c"lam_g\00", align 1
@.str.23 = private unnamed_addr constant [6 x i8] c"lam_p\00", align 1
@.str.321 = private unnamed_addr constant [50 x i8] c"basic_string: construction from null is not valid\00", align 1

; Function Attrs: mustprogress nounwind uwtable
define linkonce_odr hidden noundef i64 @_ZNSt11char_traitsIcE6lengthEPKc(ptr noundef %0) #5 comdat align 2 {
  %2 = alloca ptr, align 8
  store ptr %0, ptr %2, align 8
  %3 = load ptr, ptr %2, align 8
  %4 = call i64 @strlen(ptr noundef %3) #3
  ret i64 %4
}

; Function Attrs: mustprogress nounwind uwtable
define linkonce_odr hidden void @_ZNSt7__cxx1112basic_stringIcSt11char_traitsIcESaIcEE12_Alloc_hiderD2Ev(ptr noundef nonnull align 8 dereferenceable(8) %0) unnamed_addr #5 comdat align 2 {
  %2 = alloca ptr, align 8
  store ptr %0, ptr %2, align 8
  %3 = load ptr, ptr %2, align 8
  call void @_ZNSaIcED2Ev(ptr noundef nonnull align 1 dereferenceable(1) %3) #3
  ret void
}

; Function Attrs: mustprogress uwtable
define linkonce_odr hidden void @_ZNSt7__cxx1112basic_stringIcSt11char_traitsIcESaIcEEC2IS3_EEPKcRKS3_(ptr noundef nonnull align 8 dereferenceable(32) %0, ptr noundef %1, ptr noundef nonnull align 1 dereferenceable(1) %2) unnamed_addr #4 comdat align 2 personality ptr @__gxx_personality_v0 {
  %4 = alloca ptr, align 8
  %5 = alloca ptr, align 8
  %6 = alloca ptr, align 8
  %7 = alloca ptr, align 8
  %8 = alloca i32, align 4
  %9 = alloca ptr, align 8
  store ptr %0, ptr %4, align 8
  store ptr %1, ptr %5, align 8
  store ptr %2, ptr %6, align 8
  %10 = load ptr, ptr %4, align 8
  %11 = getelementptr inbounds %"class.std::__cxx11::basic_string", ptr %10, i32 0, i32 0
  %12 = call noundef ptr @_ZNSt7__cxx1112basic_stringIcSt11char_traitsIcESaIcEE13_M_local_dataEv(ptr noundef nonnull align 8 dereferenceable(32) %10)
  %13 = load ptr, ptr %6, align 8
  call void @_ZNSt7__cxx1112basic_stringIcSt11char_traitsIcESaIcEE12_Alloc_hiderC1EPcRKS3_(ptr noundef nonnull align 8 dereferenceable(8) %11, ptr noundef %12, ptr noundef nonnull align 1 dereferenceable(1) %13)
  %14 = load ptr, ptr %5, align 8
  %15 = icmp eq ptr %14, null
  br i1 %15, label %16, label %22

16:                                               ; preds = %3
  invoke void @_ZSt19__throw_logic_errorPKc(ptr noundef @.str.321) #17
          to label %17 unwind label %18

17:                                               ; preds = %16
  unreachable

18:                                               ; preds = %22, %16
  %19 = landingpad { ptr, i32 }
          cleanup
  %20 = extractvalue { ptr, i32 } %19, 0
  store ptr %20, ptr %7, align 8
  %21 = extractvalue { ptr, i32 } %19, 1
  store i32 %21, ptr %8, align 4
  call void @_ZNSt7__cxx1112basic_stringIcSt11char_traitsIcESaIcEE12_Alloc_hiderD2Ev(ptr noundef nonnull align 8 dereferenceable(8) %11) #3
  br label %30

22:                                               ; preds = %3
  %23 = load ptr, ptr %5, align 8
  %24 = load ptr, ptr %5, align 8
  %25 = call noundef i64 @_ZNSt11char_traitsIcE6lengthEPKc(ptr noundef %24)
  %26 = getelementptr inbounds i8, ptr %23, i64 %25
  store ptr %26, ptr %9, align 8
  %27 = load ptr, ptr %5, align 8
  %28 = load ptr, ptr %9, align 8
  invoke void @_ZNSt7__cxx1112basic_stringIcSt11char_traitsIcESaIcEE12_M_constructIPKcEEvT_S8_St20forward_iterator_tag(ptr noundef nonnull align 8 dereferenceable(32) %10, ptr noundef %27, ptr noundef %28)
          to label %29 unwind label %18

29:                                               ; preds = %22
  ret void

30:                                               ; preds = %18
  %31 = load ptr, ptr %7, align 8
  %32 = load i32, ptr %8, align 4
  %33 = insertvalue { ptr, i32 } poison, ptr %31, 0
  %34 = insertvalue { ptr, i32 } %33, i32 %32, 1
  resume { ptr, i32 } %34
}

; Function Attrs: mustprogress uwtable
define void @_ZN6casadi10nlpsol_outB5cxx11Ex(ptr dead_on_unwind noalias writable sret(%"class.std::__cxx11::basic_string") align 8 %0, i64 noundef %1) #4 personality ptr @__gxx_personality_v0 {
  %3 = alloca ptr, align 8
  %4 = alloca i64, align 8
  %5 = alloca %"class.std::allocator.0", align 1
  %6 = alloca ptr, align 8
  %7 = alloca i32, align 4
  %8 = alloca %"class.std::allocator.0", align 1
  %9 = alloca %"class.std::allocator.0", align 1
  %10 = alloca %"class.std::allocator.0", align 1
  %11 = alloca %"class.std::allocator.0", align 1
  %12 = alloca %"class.std::allocator.0", align 1
  store ptr %0, ptr %3, align 8
  store i64 %1, ptr %4, align 8
  %13 = load i64, ptr %4, align 8
  %14 = trunc i64 %13 to i32
  switch i32 %14, label %52 [
    i32 0, label %15
    i32 1, label %21
    i32 2, label %27
    i32 3, label %33
    i32 4, label %39
    i32 5, label %45
    i32 6, label %51
  ]

15:                                               ; preds = %2
  call void @_ZNSaIcEC1Ev(ptr noundef nonnull align 1 dereferenceable(1) %5) #3
  invoke void @_ZNSt7__cxx1112basic_stringIcSt11char_traitsIcESaIcEEC2IS3_EEPKcRKS3_(ptr noundef nonnull align 8 dereferenceable(32) %0, ptr noundef @.str, ptr noundef nonnull align 1 dereferenceable(1) %5)
          to label %16 unwind label %17

16:                                               ; preds = %15
  call void @_ZNSaIcED1Ev(ptr noundef nonnull align 1 dereferenceable(1) %5) #3
  br label %53

17:                                               ; preds = %15
  %18 = landingpad { ptr, i32 }
          cleanup
  %19 = extractvalue { ptr, i32 } %18, 0
  store ptr %19, ptr %6, align 8
  %20 = extractvalue { ptr, i32 } %18, 1
  store i32 %20, ptr %7, align 4
  call void @_ZNSaIcED1Ev(ptr noundef nonnull align 1 dereferenceable(1) %5) #3
  br label %54

21:                                               ; preds = %2
  call void @_ZNSaIcEC1Ev(ptr noundef nonnull align 1 dereferenceable(1) %8) #3
  invoke void @_ZNSt7__cxx1112basic_stringIcSt11char_traitsIcESaIcEEC2IS3_EEPKcRKS3_(ptr noundef nonnull align 8 dereferenceable(32) %0, ptr noundef @.str.4, ptr noundef nonnull align 1 dereferenceable(1) %8)
          to label %22 unwind label %23

22:                                               ; preds = %21
  call void @_ZNSaIcED1Ev(ptr noundef nonnull align 1 dereferenceable(1) %8) #3
  br label %53

23:                                               ; preds = %21
  %24 = landingpad { ptr, i32 }
          cleanup
  %25 = extractvalue { ptr, i32 } %24, 0
  store ptr %25, ptr %6, align 8
  %26 = extractvalue { ptr, i32 } %24, 1
  store i32 %26, ptr %7, align 4
  call void @_ZNSaIcED1Ev(ptr noundef nonnull align 1 dereferenceable(1) %8) #3
  br label %54

27:                                               ; preds = %2
  call void @_ZNSaIcEC1Ev(ptr noundef nonnull align 1 dereferenceable(1) %9) #3
  invoke void @_ZNSt7__cxx1112basic_stringIcSt11char_traitsIcESaIcEEC2IS3_EEPKcRKS3_(ptr noundef nonnull align 8 dereferenceable(32) %0, ptr noundef @.str.5, ptr noundef nonnull align 1 dereferenceable(1) %9)
          to label %28 unwind label %29

28:                                               ; preds = %27
  call void @_ZNSaIcED1Ev(ptr noundef nonnull align 1 dereferenceable(1) %9) #3
  br label %53

29:                                               ; preds = %27
  %30 = landingpad { ptr, i32 }
          cleanup
  %31 = extractvalue { ptr, i32 } %30, 0
  store ptr %31, ptr %6, align 8
  %32 = extractvalue { ptr, i32 } %30, 1
  store i32 %32, ptr %7, align 4
  call void @_ZNSaIcED1Ev(ptr noundef nonnull align 1 dereferenceable(1) %9) #3
  br label %54

33:                                               ; preds = %2
  call void @_ZNSaIcEC1Ev(ptr noundef nonnull align 1 dereferenceable(1) %10) #3
  invoke void @_ZNSt7__cxx1112basic_stringIcSt11char_traitsIcESaIcEEC2IS3_EEPKcRKS3_(ptr noundef nonnull align 8 dereferenceable(32) %0, ptr noundef @.str.21, ptr noundef nonnull align 1 dereferenceable(1) %10)
          to label %34 unwind label %35

34:                                               ; preds = %33
  call void @_ZNSaIcED1Ev(ptr noundef nonnull align 1 dereferenceable(1) %10) #3
  br label %53

35:                                               ; preds = %33
  %36 = landingpad { ptr, i32 }
          cleanup
  %37 = extractvalue { ptr, i32 } %36, 0
  store ptr %37, ptr %6, align 8
  %38 = extractvalue { ptr, i32 } %36, 1
  store i32 %38, ptr %7, align 4
  call void @_ZNSaIcED1Ev(ptr noundef nonnull align 1 dereferenceable(1) %10) #3
  br label %54

39:                                               ; preds = %2
  call void @_ZNSaIcEC1Ev(ptr noundef nonnull align 1 dereferenceable(1) %11) #3
  invoke void @_ZNSt7__cxx1112basic_stringIcSt11char_traitsIcESaIcEEC2IS3_EEPKcRKS3_(ptr noundef nonnull align 8 dereferenceable(32) %0, ptr noundef @.str.22, ptr noundef nonnull align 1 dereferenceable(1) %11)
          to label %40 unwind label %41

40:                                               ; preds = %39
  call void @_ZNSaIcED1Ev(ptr noundef nonnull align 1 dereferenceable(1) %11) #3
  br label %53

41:                                               ; preds = %39
  %42 = landingpad { ptr, i32 }
          cleanup
  %43 = extractvalue { ptr, i32 } %42, 0
  store ptr %43, ptr %6, align 8
  %44 = extractvalue { ptr, i32 } %42, 1
  store i32 %44, ptr %7, align 4
  call void @_ZNSaIcED1Ev(ptr noundef nonnull align 1 dereferenceable(1) %11) #3
  br label %54

45:                                               ; preds = %2
  call void @_ZNSaIcEC1Ev(ptr noundef nonnull align 1 dereferenceable(1) %12) #3
  invoke void @_ZNSt7__cxx1112basic_stringIcSt11char_traitsIcESaIcEEC2IS3_EEPKcRKS3_(ptr noundef nonnull align 8 dereferenceable(32) %0, ptr noundef @.str.23, ptr noundef nonnull align 1 dereferenceable(1) %12)
          to label %46 unwind label %47

46:                                               ; preds = %45
  call void @_ZNSaIcED1Ev(ptr noundef nonnull align 1 dereferenceable(1) %12) #3
  br label %53

47:                                               ; preds = %45
  %48 = landingpad { ptr, i32 }
          cleanup
  %49 = extractvalue { ptr, i32 } %48, 0
  store ptr %49, ptr %6, align 8
  %50 = extractvalue { ptr, i32 } %48, 1
  store i32 %50, ptr %7, align 4
  call void @_ZNSaIcED1Ev(ptr noundef nonnull align 1 dereferenceable(1) %12) #3
  br label %54

51:                                               ; preds = %2
  br label %52

52:                                               ; preds = %51, %2
  call void @_ZNSt7__cxx1112basic_stringIcSt11char_traitsIcESaIcEEC1Ev(ptr noundef nonnull align 8 dereferenceable(32) %0) #3
  br label %53

53:                                               ; preds = %52, %46, %40, %34, %28, %22, %16
  ret void

54:                                               ; preds = %47, %41, %35, %29, %23, %17
  %55 = load ptr, ptr %6, align 8
  %56 = load i32, ptr %7, align 4
  %57 = insertvalue { ptr, i32 } poison, ptr %55, 0
  %58 = insertvalue { ptr, i32 } %57, i32 %56, 1
  resume { ptr, i32 } %58
}